target datalayout = "e-m:e-p270:32:32-p271:32:32-p272:64:64-i64:64-i128:128-f80:128-n8:16:32:64-S128"
target triple = "x86_64-pc-linux-gnu"

@g_ascii_table = external constant ptr, align 8

; Function Attrs: nounwind null_pointer_is_valid sspstrong uwtable
define internal i32 @parse_hex_dump(ptr noundef %0, ptr noundef %1, i8 noundef signext %2, i8 noundef signext %3) #7 {
  %5 = alloca i32, align 4
  %6 = alloca ptr, align 8
  %7 = alloca ptr, align 8
  %8 = alloca i8, align 1
  %9 = alloca i8, align 1
  %10 = alloca i32, align 4
  %11 = alloca i32, align 4
  %12 = alloca i32, align 4
  store ptr %0, ptr %6, align 8
  store ptr %1, ptr %7, align 8
  store i8 %2, ptr %8, align 1
  store i8 %3, ptr %9, align 1
  call void @llvm.lifetime.start.p0(i64 4, ptr %10) #11
  call void @llvm.lifetime.start.p0(i64 4, ptr %11) #11
  store i32 0, ptr %10, align 4
  store i32 0, ptr %11, align 4
  br label %13

13:                                               ; preds = %161, %4
  %14 = load ptr, ptr %6, align 8
  %15 = load i32, ptr %10, align 4
  %16 = sext i32 %15 to i64
  %17 = getelementptr i8, ptr %14, i64 %16
  %18 = load i8, ptr %17, align 1
  %19 = sext i8 %18 to i32
  %20 = load i8, ptr %9, align 1
  %21 = sext i8 %20 to i32
  %22 = icmp ne i32 %19, %21
  br i1 %22, label %23, label %162

23:                                               ; preds = %13
  %24 = load ptr, ptr @g_ascii_table, align 8
  %25 = load ptr, ptr %6, align 8
  %26 = load i32, ptr %10, align 4
  %27 = sext i32 %26 to i64
  %28 = getelementptr i8, ptr %25, i64 %27
  %29 = load i8, ptr %28, align 1
  %30 = zext i8 %29 to i64
  %31 = getelementptr i16, ptr %24, i64 %30
  %32 = load i16, ptr %31, align 2
  %33 = zext i16 %32 to i32
  %34 = and i32 %33, 1024
  %35 = icmp ne i32 %34, 0
  br i1 %35, label %36, label %50

36:                                               ; preds = %23
  %37 = load ptr, ptr @g_ascii_table, align 8
  %38 = load ptr, ptr %6, align 8
  %39 = load i32, ptr %10, align 4
  %40 = add i32 %39, 1
  %41 = sext i32 %40 to i64
  %42 = getelementptr i8, ptr %38, i64 %41
  %43 = load i8, ptr %42, align 1
  %44 = zext i8 %43 to i64
  %45 = getelementptr i16, ptr %37, i64 %44
  %46 = load i16, ptr %45, align 2
  %47 = zext i16 %46 to i32
  %48 = and i32 %47, 1024
  %49 = icmp ne i32 %48, 0
  br i1 %49, label %51, label %50

50:                                               ; preds = %36, %23
  store i32 0, ptr %5, align 4
  store i32 1, ptr %12, align 4
  br label %164

51:                                               ; preds = %36
  %52 = load ptr, ptr @g_ascii_table, align 8
  %53 = load ptr, ptr %6, align 8
  %54 = load i32, ptr %10, align 4
  %55 = sext i32 %54 to i64
  %56 = getelementptr i8, ptr %53, i64 %55
  %57 = load i8, ptr %56, align 1
  %58 = zext i8 %57 to i64
  %59 = getelementptr i16, ptr %52, i64 %58
  %60 = load i16, ptr %59, align 2
  %61 = zext i16 %60 to i32
  %62 = and i32 %61, 8
  %63 = icmp ne i32 %62, 0
  br i1 %63, label %64, label %78

64:                                               ; preds = %51
  %65 = load ptr, ptr %6, align 8
  %66 = load i32, ptr %10, align 4
  %67 = sext i32 %66 to i64
  %68 = getelementptr i8, ptr %65, i64 %67
  %69 = load i8, ptr %68, align 1
  %70 = sext i8 %69 to i32
  %71 = sub i32 %70, 48
  %72 = shl i32 %71, 4
  %73 = trunc i32 %72 to i8
  %74 = load ptr, ptr %7, align 8
  %75 = load i32, ptr %11, align 4
  %76 = sext i32 %75 to i64
  %77 = getelementptr i8, ptr %74, i64 %76
  store i8 %73, ptr %77, align 1
  br label %94

78:                                               ; preds = %51
  %79 = load ptr, ptr %6, align 8
  %80 = load i32, ptr %10, align 4
  %81 = sext i32 %80 to i64
  %82 = getelementptr i8, ptr %79, i64 %81
  %83 = load i8, ptr %82, align 1
  %84 = call signext i8 @g_ascii_toupper(i8 noundef signext %83) #13
  %85 = sext i8 %84 to i32
  %86 = sub i32 %85, 65
  %87 = add i32 %86, 10
  %88 = shl i32 %87, 4
  %89 = trunc i32 %88 to i8
  %90 = load ptr, ptr %7, align 8
  %91 = load i32, ptr %11, align 4
  %92 = sext i32 %91 to i64
  %93 = getelementptr i8, ptr %90, i64 %92
  store i8 %89, ptr %93, align 1
  br label %94

94:                                               ; preds = %78, %64
  %95 = load i32, ptr %10, align 4
  %96 = add i32 %95, 1
  store i32 %96, ptr %10, align 4
  %97 = load ptr, ptr @g_ascii_table, align 8
  %98 = load ptr, ptr %6, align 8
  %99 = load i32, ptr %10, align 4
  %100 = sext i32 %99 to i64
  %101 = getelementptr i8, ptr %98, i64 %100
  %102 = load i8, ptr %101, align 1
  %103 = zext i8 %102 to i64
  %104 = getelementptr i16, ptr %97, i64 %103
  %105 = load i16, ptr %104, align 2
  %106 = zext i16 %105 to i32
  %107 = and i32 %106, 8
  %108 = icmp ne i32 %107, 0
  br i1 %108, label %109, label %125

109:                                              ; preds = %94
  %110 = load ptr, ptr %6, align 8
  %111 = load i32, ptr %10, align 4
  %112 = sext i32 %111 to i64
  %113 = getelementptr i8, ptr %110, i64 %112
  %114 = load i8, ptr %113, align 1
  %115 = sext i8 %114 to i32
  %116 = sub i32 %115, 48
  %117 = load ptr, ptr %7, align 8
  %118 = load i32, ptr %11, align 4
  %119 = sext i32 %118 to i64
  %120 = getelementptr i8, ptr %117, i64 %119
  %121 = load i8, ptr %120, align 1
  %122 = zext i8 %121 to i32
  %123 = add i32 %122, %116
  %124 = trunc i32 %123 to i8
  store i8 %124, ptr %120, align 1
  br label %143

125:                                              ; preds = %94
  %126 = load ptr, ptr %6, align 8
  %127 = load i32, ptr %10, align 4
  %128 = sext i32 %127 to i64
  %129 = getelementptr i8, ptr %126, i64 %128
  %130 = load i8, ptr %129, align 1
  %131 = call signext i8 @g_ascii_toupper(i8 noundef signext %130) #13
  %132 = sext i8 %131 to i32
  %133 = sub i32 %132, 65
  %134 = add i32 %133, 10
  %135 = load ptr, ptr %7, align 8
  %136 = load i32, ptr %11, align 4
  %137 = sext i32 %136 to i64
  %138 = getelementptr i8, ptr %135, i64 %137
  %139 = load i8, ptr %138, align 1
  %140 = zext i8 %139 to i32
  %141 = add i32 %140, %134
  %142 = trunc i32 %141 to i8
  store i8 %142, ptr %138, align 1
  br label %143

143:                                              ; preds = %125, %109
  %144 = load i32, ptr %10, align 4
  %145 = add i32 %144, 1
  store i32 %145, ptr %10, align 4
  %146 = load i32, ptr %11, align 4
  %147 = add i32 %146, 1
  store i32 %147, ptr %11, align 4
  br label %148

148:                                              ; preds = %158, %143
  %149 = load ptr, ptr %6, align 8
  %150 = load i32, ptr %10, align 4
  %151 = sext i32 %150 to i64
  %152 = getelementptr i8, ptr %149, i64 %151
  %153 = load i8, ptr %152, align 1
  %154 = sext i8 %153 to i32
  %155 = load i8, ptr %8, align 1
  %156 = sext i8 %155 to i32
  %157 = icmp eq i32 %154, %156
  br i1 %157, label %158, label %161

158:                                              ; preds = %148
  %159 = load i32, ptr %10, align 4
  %160 = add i32 %159, 1
  store i32 %160, ptr %10, align 4
  br label %148, !llvm.loop !12

161:                                              ; preds = %148
  br label %13, !llvm.loop !13

162:                                              ; preds = %13
  %163 = load i32, ptr %11, align 4
  store i32 %163, ptr %5, align 4
  store i32 1, ptr %12, align 4
  br label %164

164:                                              ; preds = %162, %50
  call void @llvm.lifetime.end.p0(i64 4, ptr %11) #11
  call void @llvm.lifetime.end.p0(i64 4, ptr %10) #11
  %165 = load i32, ptr %5, align 4
  ret i32 %165
}

; Function Attrs: nounwind null_pointer_is_valid sspstrong uwtable
define internal i32 @parse_single_hex_dump_line(ptr noundef %0, ptr noundef %1, i32 noundef %2) #7 {
  %4 = alloca i32, align 4
  %5 = alloca ptr, align 8
  %6 = alloca ptr, align 8
  %7 = alloca i32, align 4
  %8 = alloca i32, align 4
  %9 = alloca i32, align 4
  %10 = alloca i32, align 4
  %11 = alloca i32, align 4
  store ptr %0, ptr %5, align 8
  store ptr %1, ptr %6, align 8
  store i32 %2, ptr %7, align 4
  call void @llvm.lifetime.start.p0(i64 4, ptr %8) #11
  call void @llvm.lifetime.start.p0(i64 4, ptr %9) #11
  call void @llvm.lifetime.start.p0(i64 4, ptr %10) #11
  store i32 0, ptr %9, align 4
  br label %12

12:                                               ; preds = %25, %3
  %13 = load i32, ptr %9, align 4
  %14 = icmp slt i32 %13, 2
  br i1 %14, label %15, label %28

15:                                               ; preds = %12
  %16 = load ptr, ptr %5, align 8
  %17 = load i32, ptr %9, align 4
  %18 = sext i32 %17 to i64
  %19 = getelementptr i8, ptr %16, i64 %18
  %20 = load i8, ptr %19, align 1
  %21 = sext i8 %20 to i32
  %22 = icmp eq i32 %21, 0
  br i1 %22, label %23, label %24

23:                                               ; preds = %15
  store i32 0, ptr %4, align 4
  store i32 1, ptr %11, align 4
  br label %138

24:                                               ; preds = %15
  br label %25

25:                                               ; preds = %24
  %26 = load i32, ptr %9, align 4
  %27 = add i32 %26, 1
  store i32 %27, ptr %9, align 4
  br label %12, !llvm.loop !14

28:                                               ; preds = %12
  %29 = load ptr, ptr %5, align 8
  %30 = getelementptr i8, ptr %29, i64 2
  %31 = load i8, ptr %30, align 1
  %32 = sext i8 %31 to i32
  %33 = icmp eq i32 %32, 91
  br i1 %33, label %34, label %35

34:                                               ; preds = %28
  store i32 21, ptr %8, align 4
  br label %36

35:                                               ; preds = %28
  store i32 1, ptr %8, align 4
  br label %36

36:                                               ; preds = %35, %34
  br label %37

37:                                               ; preds = %50, %36
  %38 = load i32, ptr %9, align 4
  %39 = load i32, ptr %8, align 4
  %40 = icmp slt i32 %38, %39
  br i1 %40, label %41, label %53

41:                                               ; preds = %37
  %42 = load ptr, ptr %5, align 8
  %43 = load i32, ptr %9, align 4
  %44 = sext i32 %43 to i64
  %45 = getelementptr i8, ptr %42, i64 %44
  %46 = load i8, ptr %45, align 1
  %47 = sext i8 %46 to i32
  %48 = icmp eq i32 %47, 0
  br i1 %48, label %49, label %50

49:                                               ; preds = %41
  store i32 0, ptr %4, align 4
  store i32 1, ptr %11, align 4
  br label %138

50:                                               ; preds = %41
  %51 = load i32, ptr %9, align 4
  %52 = add i32 %51, 1
  store i32 %52, ptr %9, align 4
  br label %37, !llvm.loop !15

53:                                               ; preds = %37
  store i32 0, ptr %10, align 4
  store i32 0, ptr %9, align 4
  br label %54

54:                                               ; preds = %100, %53
  %55 = load i32, ptr %9, align 4
  %56 = icmp slt i32 %55, 5
  br i1 %56, label %57, label %103

57:                                               ; preds = %54
  %58 = load ptr, ptr @g_ascii_table, align 8
  %59 = load ptr, ptr %5, align 8
  %60 = load i32, ptr %8, align 4
  %61 = sext i32 %60 to i64
  %62 = getelementptr i8, ptr %59, i64 %61
  %63 = load i8, ptr %62, align 1
  %64 = zext i8 %63 to i64
  %65 = getelementptr i16, ptr %58, i64 %64
  %66 = load i16, ptr %65, align 2
  %67 = zext i16 %66 to i32
  %68 = and i32 %67, 256
  %69 = icmp ne i32 %68, 0
  br i1 %69, label %97, label %70

70:                                               ; preds = %57
  %71 = load ptr, ptr @g_ascii_table, align 8
  %72 = load ptr, ptr %5, align 8
  %73 = load i32, ptr %8, align 4
  %74 = sext i32 %73 to i64
  %75 = getelementptr i8, ptr %72, i64 %74
  %76 = load i8, ptr %75, align 1
  %77 = zext i8 %76 to i64
  %78 = getelementptr i16, ptr %71, i64 %77
  %79 = load i16, ptr %78, align 2
  %80 = zext i16 %79 to i32
  %81 = and i32 %80, 8
  %82 = icmp ne i32 %81, 0
  br i1 %82, label %83, label %95

83:                                               ; preds = %70
  %84 = load i32, ptr %10, align 4
  %85 = mul i32 %84, 10
  store i32 %85, ptr %10, align 4
  %86 = load ptr, ptr %5, align 8
  %87 = load i32, ptr %8, align 4
  %88 = sext i32 %87 to i64
  %89 = getelementptr i8, ptr %86, i64 %88
  %90 = load i8, ptr %89, align 1
  %91 = sext i8 %90 to i32
  %92 = sub i32 %91, 48
  %93 = load i32, ptr %10, align 4
  %94 = add i32 %93, %92
  store i32 %94, ptr %10, align 4
  br label %96

95:                                               ; preds = %70
  store i32 0, ptr %4, align 4
  store i32 1, ptr %11, align 4
  br label %138

96:                                               ; preds = %83
  br label %97

97:                                               ; preds = %96, %57
  %98 = load i32, ptr %8, align 4
  %99 = add i32 %98, 1
  store i32 %99, ptr %8, align 4
  br label %100

100:                                              ; preds = %97
  %101 = load i32, ptr %9, align 4
  %102 = add i32 %101, 1
  store i32 %102, ptr %9, align 4
  br label %54, !llvm.loop !16

103:                                              ; preds = %54
  %104 = load i32, ptr %10, align 4
  %105 = load i32, ptr %7, align 4
  %106 = icmp ne i32 %104, %105
  br i1 %106, label %107, label %108

107:                                              ; preds = %103
  store i32 0, ptr %4, align 4
  store i32 1, ptr %11, align 4
  br label %138

108:                                              ; preds = %103
  br label %109

109:                                              ; preds = %126, %108
  %110 = load ptr, ptr %5, align 8
  %111 = load i32, ptr %8, align 4
  %112 = sext i32 %111 to i64
  %113 = getelementptr i8, ptr %110, i64 %112
  %114 = load i8, ptr %113, align 1
  %115 = sext i8 %114 to i32
  %116 = icmp ne i32 %115, 91
  br i1 %116, label %117, label %129

117:                                              ; preds = %109
  %118 = load ptr, ptr %5, align 8
  %119 = load i32, ptr %8, align 4
  %120 = sext i32 %119 to i64
  %121 = getelementptr i8, ptr %118, i64 %120
  %122 = load i8, ptr %121, align 1
  %123 = sext i8 %122 to i32
  %124 = icmp eq i32 %123, 0
  br i1 %124, label %125, label %126

125:                                              ; preds = %117
  store i32 0, ptr %4, align 4
  store i32 1, ptr %11, align 4
  br label %138

126:                                              ; preds = %117
  %127 = load i32, ptr %8, align 4
  %128 = add i32 %127, 1
  store i32 %128, ptr %8, align 4
  br label %109, !llvm.loop !17

129:                                              ; preds = %109
  %130 = load i32, ptr %8, align 4
  %131 = add i32 %130, 1
  store i32 %131, ptr %8, align 4
  %132 = load ptr, ptr %5, align 8
  %133 = load i32, ptr %8, align 4
  %134 = sext i32 %133 to i64
  %135 = getelementptr i8, ptr %132, i64 %134
  %136 = load ptr, ptr %6, align 8
  %137 = call i32 @parse_hex_dump(ptr noundef %135, ptr noundef %136, i8 noundef signext 32, i8 noundef signext 93)
  store i32 %137, ptr %4, align 4
  store i32 1, ptr %11, align 4
  br label %138

138:                                              ; preds = %129, %125, %107, %95, %49, %23
  call void @llvm.lifetime.end.p0(i64 4, ptr %10) #11
  call void @llvm.lifetime.end.p0(i64 4, ptr %9) #11
  call void @llvm.lifetime.end.p0(i64 4, ptr %8) #11
  %139 = load i32, ptr %4, align 4
  ret i32 %139
}