; Function Attrs: nofree nosync nounwind null_pointer_is_valid sspstrong memory(read, argmem: readwrite, inaccessiblemem: none) uwtable
define internal fastcc i32 @parse_single_hex_dump_line(ptr noundef readonly captures(none) %0, ptr noundef writeonly captures(none) %1, i32 noundef %2) unnamed_addr #4 {
  br label %5

4:                                                ; preds = %5
  br i1 %6, label %5, label %10, !llvm.loop !14

5:                                                ; preds = %3, %4
  %6 = phi i1 [ true, %3 ], [ false, %4 ]
  %indvars.iv = phi i64 [ 0, %3 ], [ 1, %4 ]
  %7 = getelementptr i8, ptr %0, i64 %indvars.iv
  %8 = load i8, ptr %7, align 1
  %9 = icmp eq i8 %8, 0
  br i1 %9, label %parse_hex_dump.exit, label %4

10:                                               ; preds = %4
  %11 = getelementptr i8, ptr %0, i64 2
  %12 = load i8, ptr %11, align 1
  %13 = icmp eq i8 %12, 91
  %. = select i1 %13, i32 21, i32 1
  br i1 %13, label %.lr.ph, label %.preheader43

14:                                               ; preds = %.lr.ph
  %indvars.iv.next63 = add nuw nsw i64 %indvars.iv62, 1
  %exitcond.not = icmp eq i64 %indvars.iv.next63, 21
  br i1 %exitcond.not, label %.preheader43, label %.lr.ph, !llvm.loop !15

.preheader43:                                     ; preds = %14, %10
  %15 = load ptr, ptr @g_ascii_table, align 8
  %16 = zext nneg i32 %. to i64
  %17 = add nuw nsw i32 %., 5
  br label %21

.lr.ph:                                           ; preds = %10, %14
  %indvars.iv62 = phi i64 [ %indvars.iv.next63, %14 ], [ 2, %10 ]
  %18 = getelementptr i8, ptr %0, i64 %indvars.iv62
  %19 = load i8, ptr %18, align 1
  %20 = icmp eq i8 %19, 0
  br i1 %20, label %parse_hex_dump.exit, label %14

21:                                               ; preds = %.preheader43, %36
  %indvars.iv65 = phi i64 [ %16, %.preheader43 ], [ %indvars.iv.next66, %36 ]
  %.054 = phi i32 [ 0, %.preheader43 ], [ %.1, %36 ]
  %.253 = phi i32 [ 0, %.preheader43 ], [ %37, %36 ]
  %22 = getelementptr i8, ptr %0, i64 %indvars.iv65
  %23 = load i8, ptr %22, align 1
  %24 = zext i8 %23 to i64
  %25 = getelementptr i16, ptr %15, i64 %24
  %26 = load i16, ptr %25, align 2
  %27 = zext i16 %26 to i32
  %28 = and i32 %27, 256
  %.not40 = icmp eq i32 %28, 0
  br i1 %.not40, label %29, label %36

29:                                               ; preds = %21
  %30 = and i32 %27, 8
  %.not41 = icmp eq i32 %30, 0
  br i1 %.not41, label %parse_hex_dump.exit, label %31

31:                                               ; preds = %29
  %32 = mul i32 %.054, 10
  %33 = sext i8 %23 to i32
  %34 = add i32 %32, -48
  %35 = add i32 %34, %33
  br label %36

36:                                               ; preds = %31, %21
  %.1 = phi i32 [ %.054, %21 ], [ %35, %31 ]
  %indvars.iv.next66 = add nuw nsw i64 %indvars.iv65, 1
  %37 = add nuw nsw i32 %.253, 1
  %exitcond68.not = icmp eq i32 %37, 5
  br i1 %exitcond68.not, label %38, label %21, !llvm.loop !16

38:                                               ; preds = %36
  %.not = icmp eq i32 %.1, %2
  br i1 %.not, label %.preheader, label %parse_hex_dump.exit

.preheader:                                       ; preds = %38, %42
  %.236 = phi i32 [ %43, %42 ], [ %17, %38 ]
  %39 = sext i32 %.236 to i64
  %40 = getelementptr i8, ptr %0, i64 %39
  %41 = load i8, ptr %40, align 1
  switch i8 %41, label %42 [
    i8 91, label %44
    i8 0, label %parse_hex_dump.exit
  ]

42:                                               ; preds = %.preheader
  %43 = add i32 %.236, 1
  br label %.preheader, !llvm.loop !17

44:                                               ; preds = %.preheader
  %45 = add i32 %.236, 1
  %46 = sext i32 %45 to i64
  %47 = getelementptr i8, ptr %0, i64 %46
  %48 = load i8, ptr %47, align 1
  %.not42.i = icmp eq i8 %48, 93
  br i1 %.not42.i, label %parse_hex_dump.exit, label %.lr.ph.i

.loopexit.i:                                      ; preds = %89
  %49 = add i32 %.044.i, 1
  %.not.i = icmp eq i8 %92, 93
  br i1 %.not.i, label %parse_hex_dump.exit, label %.lr.ph.i, !llvm.loop !10

.lr.ph.i:                                         ; preds = %44, %.loopexit.i
  %50 = phi i8 [ %92, %.loopexit.i ], [ %48, %44 ]
  %.044.i = phi i32 [ %49, %.loopexit.i ], [ 0, %44 ]
  %.03543.i = phi i32 [ %.1.i, %.loopexit.i ], [ 0, %44 ]
  %51 = zext i8 %50 to i64
  %52 = getelementptr i16, ptr %15, i64 %51
  %53 = load i16, ptr %52, align 2
  %54 = zext i16 %53 to i32
  %55 = and i32 %54, 1024
  %.not38.i = icmp eq i32 %55, 0
  br i1 %.not38.i, label %parse_hex_dump.exit, label %56

56:                                               ; preds = %.lr.ph.i
  %57 = add i32 %.03543.i, 1
  %58 = sext i32 %57 to i64
  %59 = getelementptr i8, ptr %47, i64 %58
  %60 = load i8, ptr %59, align 1
  %61 = zext i8 %60 to i64
  %62 = getelementptr i16, ptr %15, i64 %61
  %63 = load i16, ptr %62, align 2
  %64 = and i16 %63, 1024
  %.not39.i = icmp eq i16 %64, 0
  br i1 %.not39.i, label %parse_hex_dump.exit, label %65

65:                                               ; preds = %56
  %66 = and i32 %54, 8
  %.not40.i = icmp eq i32 %66, 0
  br i1 %.not40.i, label %69, label %67

67:                                               ; preds = %65
  %68 = shl i8 %50, 4
  br label %73

69:                                               ; preds = %65
  %70 = tail call signext i8 @g_ascii_toupper(i8 noundef signext %50) #12
  %71 = shl i8 %70, 4
  %72 = add i8 %71, -112
  br label %73

73:                                               ; preds = %69, %67
  %.sink.i = phi i8 [ %72, %69 ], [ %68, %67 ]
  %74 = sext i32 %.044.i to i64
  %75 = getelementptr i8, ptr %1, i64 %74
  store i8 %.sink.i, ptr %75, align 1
  %76 = load i8, ptr %59, align 1
  %77 = zext i8 %76 to i64
  %78 = getelementptr i16, ptr %15, i64 %77
  %79 = load i16, ptr %78, align 2
  %80 = and i16 %79, 8
  %.not41.i = icmp eq i16 %80, 0
  br i1 %.not41.i, label %83, label %81

81:                                               ; preds = %73
  %82 = add i8 %76, -48
  br label %86

83:                                               ; preds = %73
  %84 = tail call signext i8 @g_ascii_toupper(i8 noundef signext %76) #12
  %85 = add i8 %84, -55
  br label %86

86:                                               ; preds = %83, %81
  %.sink53.i = phi i8 [ %85, %83 ], [ %82, %81 ]
  %87 = add i8 %.sink53.i, %.sink.i
  store i8 %87, ptr %75, align 1
  %88 = add i32 %.03543.i, 2
  br label %89

89:                                               ; preds = %89, %86
  %.1.i = phi i32 [ %88, %86 ], [ %94, %89 ]
  %90 = sext i32 %.1.i to i64
  %91 = getelementptr i8, ptr %47, i64 %90
  %92 = load i8, ptr %91, align 1
  %93 = icmp eq i8 %92, 32
  %94 = add i32 %.1.i, 1
  br i1 %93, label %89, label %.loopexit.i, !llvm.loop !11

parse_hex_dump.exit:                              ; preds = %5, %.lr.ph, %29, %.preheader, %56, %.lr.ph.i, %.loopexit.i, %44, %38
  %.037 = phi i32 [ 0, %38 ], [ 0, %44 ], [ 0, %56 ], [ 0, %.lr.ph.i ], [ %49, %.loopexit.i ], [ 0, %.preheader ], [ 0, %29 ], [ 0, %.lr.ph ], [ 0, %5 ]
  ret i32 %.037
}